(lp1
(lp2
I404
aI81
aI0
aa(lp3
I387
aI65
aI0
aa(lp4
I384
aI76
aI0
aa(lp5
I393
aI82
aI0
aa(lp6
I371
aI76
aI0
aa(lp7
I384
aI75
aI0
aa(lp8
I417
aI69
aI0
aa(lp9
I417
aI85
aI0
aa(lp10
I350
aI64
aI0
aa(lp11
I365
aI77
aI0
aa(lp12
I403
aI84
aI0
aa(lp13
I374
aI91
aI0
aa(lp14
I370
aI88
aI0
aa(lp15
I404
aI83
aI0
aa(lp16
I397
aI89
aI0
aa(lp17
I414
aI82
aI0
aa(lp18
I440
aI95
aI0
aa(lp19
I388
aI83
aI0
aa(lp20
I376
aI88
aI0
aa(lp21
I397
aI70
aI0
aa(lp22
I358
aI65
aI0
aa(lp23
I399
aI96
aI0
aa(lp24
I350
aI64
aI0
aa(lp25
I372
aI80
aI0
aa(lp26
I409
aI83
aI0
aa(lp27
I403
aI78
aI0
aa(lp28
I407
aI88
aI0
aa(lp29
I405
aI83
aI0
aa(lp30
I385
aI64
aI0
aa(lp31
I397
aI73
aI0
aa(lp32
I373
aI78
aI0
aa(lp33
I362
aI63
aI0
aa(lp34
I365
aI85
aI0
aa(lp35
I145
aI30
aI0
aa(lp36
I358
aI58
aI0
aa(lp37
I368
aI79
aI0
aa(lp38
I415
aI87
aI0
aa(lp39
I377
aI74
aI0
aa(lp40
I432
aI88
aI0
aa(lp41
I403
aI82
aI0
aa(lp42
I381
aI68
aI0
aa(lp43
I411
aI85
aI0
aa(lp44
I418
aI88
aI0
aa(lp45
I397
aI73
aI0
aa(lp46
I407
aI84
aI0
aa(lp47
I415
aI84
aI0
aa(lp48
I377
aI82
aI0
aa(lp49
I382
aI75
aI0
aa(lp50
I405
aI87
aI0
aa(lp51
I392
aI82
aI0
aa(lp52
I380
aI93
aI0
aa(lp53
I374
aI85
aI0
aa(lp54
I393
aI77
aI0
aa(lp55
I394
aI70
aI0
aa(lp56
I368
aI71
aI0
aa.