(lp1
(lp2
I269
aI52
aI0
aa(lp3
I277
aI50
aI0
aa(lp4
I276
aI77
aI0
aa(lp5
I225
aI47
aI0
aa(lp6
I282
aI72
aI0
aa(lp7
I278
aI47
aI0
aa(lp8
I294
aI51
aI0
aa(lp9
I273
aI49
aI0
aa(lp10
I18
aI2
aI0
aa(lp11
I242
aI49
aI0
aa(lp12
I278
aI50
aI0
aa(lp13
I265
aI63
aI0
aa(lp14
I281
aI55
aI0
aa(lp15
I239
aI48
aI0
aa(lp16
I242
aI54
aI0
aa(lp17
I241
aI47
aI0
aa(lp18
I277
aI68
aI0
aa(lp19
I252
aI67
aI0
aa(lp20
I249
aI65
aI0
aa(lp21
I236
aI61
aI0
aa(lp22
I286
aI49
aI0
aa(lp23
I263
aI54
aI0
aa(lp24
I279
aI74
aI0
aa(lp25
I277
aI59
aI0
aa(lp26
I277
aI51
aI0
aa(lp27
I285
aI78
aI0
aa(lp28
I274
aI49
aI0
aa(lp29
I246
aI55
aI0
aa(lp30
I275
aI66
aI0
aa(lp31
I241
aI33
aI0
aa(lp32
I216
aI46
aI0
aa(lp33
I232
aI45
aI0
aa(lp34
I258
aI40
aI0
aa(lp35
I302
aI60
aI0
aa(lp36
I287
aI73
aI0
aa(lp37
I242
aI50
aI0
aa(lp38
I271
aI44
aI0
aa(lp39
I285
aI63
aI0
aa(lp40
I334
aI58
aI0
aa(lp41
I269
aI60
aI0
aa(lp42
I273
aI73
aI0
aa(lp43
I249
aI40
aI0
aa(lp44
I278
aI41
aI0
aa(lp45
I275
aI66
aI0
aa(lp46
I274
aI56
aI0
aa(lp47
I261
aI65
aI0
aa(lp48
I220
aI54
aI0
aa(lp49
I246
aI60
aI0
aa(lp50
I125
aI20
aI0
aa(lp51
I270
aI60
aI0
aa(lp52
I295
aI65
aI0
aa(lp53
I253
aI51
aI0
aa(lp54
I264
aI56
aI0
aa(lp55
I256
aI46
aI0
aa(lp56
I226
aI47
aI0
aa(lp57
I290
aI70
aI0
aa(lp58
I243
aI67
aI0
aa(lp59
I269
aI65
aI0
aa(lp60
I273
aI49
aI0
aa(lp61
I302
aI53
aI0
aa(lp62
I248
aI49
aI0
aa(lp63
I271
aI49
aI0
aa(lp64
I241
aI45
aI0
aa(lp65
I275
aI49
aI0
aa(lp66
I279
aI73
aI0
aa(lp67
I255
aI24
aI0
aa(lp68
I286
aI74
aI0
aa(lp69
I287
aI60
aI0
aa(lp70
I262
aI77
aI0
aa(lp71
I232
aI61
aI0
aa(lp72
I237
aI56
aI0
aa(lp73
I227
aI61
aI0
aa(lp74
I292
aI75
aI0
aa(lp75
I244
aI51
aI0
aa(lp76
I73
aI11
aI0
aa(lp77
I275
aI59
aI0
aa(lp78
I260
aI48
aI0
aa(lp79
I262
aI42
aI0
aa(lp80
I265
aI56
aI0
aa(lp81
I266
aI55
aI0
aa(lp82
I297
aI65
aI0
aa(lp83
I528
aI92
aI0
aa(lp84
I272
aI57
aI0
aa(lp85
I258
aI44
aI0
aa(lp86
I257
aI72
aI0
aa(lp87
I272
aI67
aI0
aa(lp88
I291
aI57
aI0
aa(lp89
I292
aI63
aI0
aa(lp90
I247
aI58
aI0
aa(lp91
I308
aI79
aI0
aa(lp92
I284
aI63
aI0
aa(lp93
I270
aI60
aI0
aa(lp94
I343
aI72
aI0
aa(lp95
I287
aI63
aI0
aa(lp96
I260
aI51
aI0
aa(lp97
I283
aI52
aI0
aa(lp98
I264
aI49
aI0
aa(lp99
I289
aI50
aI0
aa(lp100
I297
aI45
aI0
aa(lp101
I283
aI48
aI0
aa(lp102
I281
aI57
aI0
aa(lp103
I270
aI66
aI0
aa(lp104
I286
aI54
aI0
aa(lp105
I219
aI43
aI0
aa(lp106
I301
aI53
aI0
aa(lp107
I272
aI72
aI0
aa(lp108
I239
aI33
aI0
aa(lp109
I303
aI69
aI0
aa(lp110
I270
aI61
aI0
aa(lp111
I325
aI67
aI0
aa(lp112
I289
aI57
aI0
aa(lp113
I287
aI65
aI0
aa(lp114
I273
aI38
aI0
aa(lp115
I234
aI40
aI0
aa(lp116
I257
aI50
aI0
aa(lp117
I263
aI54
aI0
aa(lp118
I269
aI60
aI0
aa(lp119
I352
aI51
aI0
aa(lp120
I263
aI49
aI0
aa(lp121
I268
aI56
aI0
aa(lp122
I281
aI38
aI0
aa(lp123
I267
aI57
aI0
aa(lp124
I254
aI34
aI0
aa(lp125
I252
aI48
aI0
aa(lp126
I281
aI80
aI0
aa(lp127
I299
aI50
aI0
aa(lp128
I285
aI45
aI0
aa(lp129
I251
aI67
aI0
aa(lp130
I272
aI67
aI0
aa(lp131
I271
aI56
aI0
aa(lp132
I274
aI66
aI0
aa(lp133
I266
aI55
aI0
aa(lp134
I108
aI23
aI0
aa(lp135
I258
aI52
aI0
aa(lp136
I281
aI38
aI0
aa(lp137
I275
aI48
aI0
aa(lp138
I224
aI39
aI0
aa(lp139
I263
aI64
aI0
aa(lp140
I232
aI47
aI0
aa(lp141
I284
aI52
aI0
aa(lp142
I281
aI69
aI0
aa(lp143
I302
aI51
aI0
aa(lp144
I288
aI54
aI0
aa(lp145
I255
aI43
aI0
aa(lp146
I269
aI57
aI0
aa(lp147
I288
aI69
aI0
aa(lp148
I268
aI45
aI0
aa(lp149
I288
aI46
aI0
aa(lp150
I263
aI56
aI0
aa(lp151
I241
aI49
aI0
aa(lp152
I258
aI41
aI0
aa(lp153
I290
aI74
aI0
aa(lp154
I271
aI73
aI0
aa(lp155
I232
aI41
aI0
aa(lp156
I256
aI60
aI0
aa(lp157
I293
aI100
aI0
aa(lp158
I289
aI69
aI0
aa(lp159
I270
aI60
aI0
aa(lp160
I264
aI65
aI0
aa(lp161
I284
aI40
aI0
aa(lp162
I272
aI61
aI0
aa(lp163
I259
aI46
aI0
aa(lp164
I245
aI45
aI0
aa(lp165
I274
aI70
aI0
aa(lp166
I281
aI34
aI0
aa(lp167
I285
aI48
aI0
aa(lp168
I245
aI50
aI0
aa(lp169
I260
aI55
aI0
aa(lp170
I227
aI50
aI0
aa(lp171
I264
aI29
aI0
aa(lp172
I241
aI37
aI0
aa(lp173
I296
aI56
aI0
aa(lp174
I244
aI44
aI0
aa(lp175
I285
aI50
aI0
aa(lp176
I266
aI52
aI0
aa(lp177
I275
aI52
aI0
aa(lp178
I265
aI44
aI0
aa(lp179
I244
aI54
aI0
aa(lp180
I226
aI47
aI0
aa(lp181
I250
aI54
aI0
aa.