(lp1
(lp2
I321
aI0
aI0
aa(lp3
I321
aI0
aI0
aa(lp4
I325
aI0
aI0
aa(lp5
I276
aI0
aI0
aa(lp6
I318
aI0
aI0
aa(lp7
I313
aI0
aI0
aa(lp8
I325
aI60
aI0
aa(lp9
I317
aI0
aI0
aa(lp10
I321
aI0
aI0
aa(lp11
I317
aI0
aI0
aa(lp12
I326
aI65
aI0
aa(lp13
I324
aI0
aI0
aa(lp14
I327
aI0
aI0
aa(lp15
I323
aI0
aI0
aa(lp16
I319
aI0
aI0
aa(lp17
I323
aI65
aI0
aa(lp18
I325
aI72
aI0
aa(lp19
I317
aI53
aI0
aa(lp20
I318
aI0
aI0
aa(lp21
I322
aI0
aI0
aa(lp22
I315
aI0
aI0
aa(lp23
I318
aI0
aI0
aa(lp24
I287
aI0
aI0
aa(lp25
I325
aI0
aI0
aa(lp26
I317
aI0
aI0
aa(lp27
I963
aI0
aI0
aa(lp28
I648
aI0
aI0
aa(lp29
I323
aI0
aI0
aa(lp30
I317
aI0
aI0
aa(lp31
I321
aI0
aI0
aa(lp32
I317
aI0
aI0
aa(lp33
I641
aI0
aI0
aa(lp34
I321
aI60
aI0
aa(lp35
I322
aI0
aI0
aa(lp36
I315
aI0
aI0
aa(lp37
I331
aI0
aI0
aa(lp38
I212
aI0
aI0
aa(lp39
I314
aI0
aI0
aa(lp40
I313
aI0
aI0
aa(lp41
I320
aI0
aI0
aa(lp42
I650
aI126
aI0
aa(lp43
I323
aI0
aI0
aa(lp44
I320
aI0
aI0
aa(lp45
I317
aI0
aI0
aa(lp46
I637
aI0
aI0
aa(lp47
I312
aI0
aI0
aa(lp48
I327
aI0
aI0
aa(lp49
I325
aI0
aI0
aa(lp50
I320
aI0
aI0
aa(lp51
I313
aI0
aI0
aa(lp52
I323
aI0
aI0
aa(lp53
I325
aI0
aI0
aa(lp54
I317
aI0
aI0
aa(lp55
I320
aI0
aI0
aa(lp56
I318
aI0
aI0
aa(lp57
I315
aI0
aI0
aa(lp58
I322
aI0
aI0
aa(lp59
I321
aI68
aI0
aa(lp60
I329
aI0
aI0
aa(lp61
I314
aI0
aI0
aa(lp62
I328
aI0
aI0
aa(lp63
I653
aI0
aI0
aa(lp64
I644
aI0
aI0
aa(lp65
I645
aI0
aI0
aa(lp66
I325
aI0
aI0
aa(lp67
I314
aI0
aI0
aa(lp68
I325
aI0
aI0
aa(lp69
I325
aI0
aI0
aa(lp70
I321
aI0
aI0
aa(lp71
I313
aI0
aI0
aa(lp72
I319
aI0
aI0
aa(lp73
I320
aI0
aI0
aa(lp74
I315
aI0
aI0
aa(lp75
I323
aI0
aI0
aa(lp76
I322
aI0
aI0
aa(lp77
I318
aI0
aI0
aa(lp78
I318
aI0
aI0
aa(lp79
I318
aI0
aI0
aa(lp80
I317
aI0
aI0
aa(lp81
I317
aI0
aI0
aa(lp82
I334
aI0
aI0
aa(lp83
I319
aI0
aI0
aa(lp84
I324
aI0
aI0
aa(lp85
I322
aI0
aI0
aa(lp86
I315
aI61
aI0
aa(lp87
I320
aI0
aI0
aa(lp88
I303
aI0
aI0
aa(lp89
I317
aI0
aI0
aa(lp90
I319
aI0
aI0
aa(lp91
I319
aI0
aI0
aa(lp92
I316
aI65
aI0
aa(lp93
I328
aI0
aI0
aa(lp94
I324
aI0
aI0
aa(lp95
I324
aI0
aI0
aa(lp96
I324
aI0
aI0
aa(lp97
I314
aI0
aI0
aa(lp98
I321
aI0
aI0
aa(lp99
I317
aI0
aI0
aa(lp100
I327
aI0
aI0
aa(lp101
I312
aI0
aI0
aa(lp102
I318
aI0
aI0
aa(lp103
I322
aI72
aI0
aa(lp104
I641
aI0
aI0
aa(lp105
I325
aI0
aI0
aa(lp106
I311
aI0
aI0
aa(lp107
I635
aI0
aI0
aa(lp108
I617
aI0
aI0
aa(lp109
I321
aI79
aI0
aa(lp110
I313
aI0
aI0
aa(lp111
I331
aI0
aI0
aa(lp112
I324
aI0
aI0
aa(lp113
I630
aI0
aI0
aa(lp114
I317
aI0
aI0
aa(lp115
I318
aI0
aI0
aa(lp116
I325
aI0
aI0
aa(lp117
I628
aI0
aI0
aa(lp118
I326
aI0
aI0
aa(lp119
I318
aI0
aI0
aa(lp120
I317
aI0
aI0
aa(lp121
I313
aI0
aI0
aa(lp122
I319
aI0
aI0
aa(lp123
I635
aI0
aI0
aa(lp124
I321
aI0
aI0
aa(lp125
I320
aI0
aI0
aa(lp126
I315
aI0
aI0
aa(lp127
I310
aI0
aI0
aa(lp128
I322
aI0
aI0
aa(lp129
I267
aI0
aI0
aa(lp130
I320
aI0
aI0
aa(lp131
I317
aI0
aI0
aa(lp132
I323
aI0
aI0
aa(lp133
I325
aI57
aI0
aa(lp134
I320
aI0
aI0
aa(lp135
I317
aI0
aI0
aa(lp136
I314
aI0
aI0
aa(lp137
I317
aI0
aI0
aa(lp138
I314
aI0
aI0
aa(lp139
I318
aI0
aI0
aa(lp140
I649
aI137
aI0
aa(lp141
I319
aI0
aI0
aa(lp142
I317
aI0
aI0
aa(lp143
I323
aI0
aI0
aa(lp144
I315
aI0
aI0
aa(lp145
I322
aI0
aI0
aa(lp146
I317
aI0
aI0
aa(lp147
I318
aI0
aI0
aa(lp148
I639
aI0
aI0
aa(lp149
I324
aI0
aI0
aa(lp150
I323
aI0
aI0
aa(lp151
I314
aI57
aI0
aa(lp152
I321
aI59
aI0
aa(lp153
I320
aI0
aI0
aa(lp154
I328
aI0
aI0
aa(lp155
I311
aI56
aI0
aa(lp156
I328
aI0
aI0
aa(lp157
I312
aI0
aI0
aa(lp158
I326
aI68
aI0
aa(lp159
I327
aI0
aI0
aa(lp160
I321
aI0
aI0
aa(lp161
I329
aI0
aI0
aa(lp162
I322
aI0
aI0
aa(lp163
I324
aI0
aI0
aa(lp164
I314
aI0
aI0
aa(lp165
I318
aI0
aI0
aa(lp166
I319
aI0
aI0
aa(lp167
I641
aI0
aI0
aa(lp168
I284
aI0
aI0
aa(lp169
I322
aI0
aI0
aa(lp170
I321
aI0
aI0
aa(lp171
I294
aI0
aI0
aa(lp172
I321
aI0
aI0
aa(lp173
I326
aI0
aI0
aa(lp174
I322
aI0
aI0
aa(lp175
I322
aI0
aI0
aa(lp176
I316
aI0
aI0
aa(lp177
I319
aI0
aI0
aa(lp178
I309
aI0
aI0
aa(lp179
I323
aI0
aI0
aa(lp180
I323
aI0
aI0
aa(lp181
I321
aI0
aI0
aa(lp182
I324
aI0
aI0
aa(lp183
I322
aI71
aI0
aa(lp184
I319
aI0
aI0
aa(lp185
I322
aI0
aI0
aa(lp186
I316
aI0
aI0
aa(lp187
I323
aI0
aI0
aa(lp188
I320
aI0
aI0
aa(lp189
I322
aI0
aI0
aa(lp190
I323
aI0
aI0
aa(lp191
I324
aI0
aI0
aa(lp192
I639
aI0
aI0
aa(lp193
I321
aI66
aI0
aa(lp194
I317
aI0
aI0
aa(lp195
I325
aI69
aI0
aa(lp196
I316
aI0
aI0
aa(lp197
I315
aI0
aI0
aa(lp198
I327
aI0
aI0
aa(lp199
I323
aI0
aI0
aa(lp200
I317
aI0
aI0
aa(lp201
I319
aI0
aI0
aa(lp202
I327
aI0
aI0
aa(lp203
I640
aI0
aI0
aa(lp204
I324
aI0
aI0
aa(lp205
I322
aI0
aI0
aa(lp206
I325
aI56
aI0
aa(lp207
I315
aI0
aI0
aa(lp208
I321
aI0
aI0
aa(lp209
I314
aI0
aI0
aa(lp210
I328
aI0
aI0
aa(lp211
I321
aI0
aI0
aa(lp212
I323
aI0
aI0
aa(lp213
I322
aI0
aI0
aa(lp214
I324
aI0
aI0
aa(lp215
I318
aI0
aI0
aa(lp216
I327
aI0
aI0
aa(lp217
I319
aI0
aI0
aa(lp218
I319
aI0
aI0
aa(lp219
I320
aI0
aI0
aa(lp220
I321
aI49
aI0
aa(lp221
I322
aI0
aI0
aa(lp222
I333
aI0
aI0
aa(lp223
I323
aI0
aI0
aa(lp224
I314
aI0
aI0
aa(lp225
I658
aI127
aI0
aa(lp226
I319
aI0
aI0
aa(lp227
I319
aI62
aI0
aa(lp228
I327
aI0
aI0
aa.